; ModuleID = '14/995.c'
source_filename = "14/995.c"
target datalayout = "e-m:e-p270:32:32-p271:32:32-p272:64:64-i64:64-f80:128-n8:16:32:64-S128"
target triple = "x86_64-pc-linux-gnu"

%struct.stu = type { i32, i32, i32, i32, %struct.stu* }

@.str = private unnamed_addr constant [4 x i8] c"%d\0A\00", align 1
@.str.1 = private unnamed_addr constant [9 x i8] c"%d %d %d\00", align 1
@.str.2 = private unnamed_addr constant [7 x i8] c"%d %d\0A\00", align 1

; Function Attrs: noinline nounwind uwtable
define dso_local void @main() #0 {
  %1 = alloca i32, align 4
  %2 = alloca i32, align 4
  %3 = alloca %struct.stu*, align 8
  %4 = alloca %struct.stu*, align 8
  %5 = alloca %struct.stu*, align 8
  %6 = call i32 (i8*, ...) @__isoc99_scanf(i8* getelementptr inbounds ([4 x i8], [4 x i8]* @.str, i64 0, i64 0), i32* %1)
  %7 = call noalias i8* @malloc(i64 24) #3
  %8 = bitcast i8* %7 to %struct.stu*
  store %struct.stu* %8, %struct.stu** %5, align 8
  %9 = call noalias i8* @malloc(i64 24) #3
  %10 = bitcast i8* %9 to %struct.stu*
  store %struct.stu* %10, %struct.stu** %3, align 8
  %11 = load %struct.stu*, %struct.stu** %3, align 8
  %12 = load %struct.stu*, %struct.stu** %5, align 8
  %13 = getelementptr inbounds %struct.stu, %struct.stu* %12, i32 0, i32 4
  store %struct.stu* %11, %struct.stu** %13, align 8
  store i32 0, i32* %2, align 4
  br label %14

14:                                               ; preds = %41, %0
  %15 = load i32, i32* %2, align 4
  %16 = load i32, i32* %1, align 4
  %17 = icmp slt i32 %15, %16
  br i1 %17, label %18, label %44

18:                                               ; preds = %14
  %19 = load %struct.stu*, %struct.stu** %3, align 8
  %20 = getelementptr inbounds %struct.stu, %struct.stu* %19, i32 0, i32 0
  %21 = load %struct.stu*, %struct.stu** %3, align 8
  %22 = getelementptr inbounds %struct.stu, %struct.stu* %21, i32 0, i32 1
  %23 = load %struct.stu*, %struct.stu** %3, align 8
  %24 = getelementptr inbounds %struct.stu, %struct.stu* %23, i32 0, i32 2
  %25 = call i32 (i8*, ...) @__isoc99_scanf(i8* getelementptr inbounds ([9 x i8], [9 x i8]* @.str.1, i64 0, i64 0), i32* %20, i32* %22, i32* %24)
  %26 = load %struct.stu*, %struct.stu** %3, align 8
  %27 = getelementptr inbounds %struct.stu, %struct.stu* %26, i32 0, i32 1
  %28 = load i32, i32* %27, align 4
  %29 = load %struct.stu*, %struct.stu** %3, align 8
  %30 = getelementptr inbounds %struct.stu, %struct.stu* %29, i32 0, i32 2
  %31 = load i32, i32* %30, align 8
  %32 = add nsw i32 %28, %31
  %33 = load %struct.stu*, %struct.stu** %3, align 8
  %34 = getelementptr inbounds %struct.stu, %struct.stu* %33, i32 0, i32 3
  store i32 %32, i32* %34, align 4
  %35 = call noalias i8* @malloc(i64 24) #3
  %36 = bitcast i8* %35 to %struct.stu*
  store %struct.stu* %36, %struct.stu** %4, align 8
  %37 = load %struct.stu*, %struct.stu** %4, align 8
  %38 = load %struct.stu*, %struct.stu** %3, align 8
  %39 = getelementptr inbounds %struct.stu, %struct.stu* %38, i32 0, i32 4
  store %struct.stu* %37, %struct.stu** %39, align 8
  %40 = load %struct.stu*, %struct.stu** %4, align 8
  store %struct.stu* %40, %struct.stu** %3, align 8
  br label %41

41:                                               ; preds = %18
  %42 = load i32, i32* %2, align 4
  %43 = add nsw i32 %42, 1
  store i32 %43, i32* %2, align 4
  br label %14

44:                                               ; preds = %14
  %45 = load %struct.stu*, %struct.stu** %3, align 8
  %46 = getelementptr inbounds %struct.stu, %struct.stu* %45, i32 0, i32 4
  store %struct.stu* null, %struct.stu** %46, align 8
  %47 = load %struct.stu*, %struct.stu** %5, align 8
  call void @max(%struct.stu* %47)
  %48 = load %struct.stu*, %struct.stu** %5, align 8
  call void @max(%struct.stu* %48)
  %49 = load %struct.stu*, %struct.stu** %5, align 8
  call void @max(%struct.stu* %49)
  ret void
}

declare dso_local i32 @__isoc99_scanf(i8*, ...) #1

; Function Attrs: nounwind
declare dso_local noalias i8* @malloc(i64) #2

; Function Attrs: noinline nounwind uwtable
define dso_local void @max(%struct.stu* %0) #0 {
  %2 = alloca %struct.stu*, align 8
  %3 = alloca %struct.stu*, align 8
  %4 = alloca %struct.stu*, align 8
  %5 = alloca %struct.stu*, align 8
  %6 = alloca %struct.stu*, align 8
  %7 = alloca i32, align 4
  store %struct.stu* %0, %struct.stu** %2, align 8
  store i32 0, i32* %7, align 4
  %8 = load %struct.stu*, %struct.stu** %2, align 8
  store %struct.stu* %8, %struct.stu** %3, align 8
  br label %9

9:                                                ; preds = %30, %1
  %10 = load %struct.stu*, %struct.stu** %3, align 8
  %11 = getelementptr inbounds %struct.stu, %struct.stu* %10, i32 0, i32 4
  %12 = load %struct.stu*, %struct.stu** %11, align 8
  %13 = icmp ne %struct.stu* %12, null
  br i1 %13, label %14, label %31

14:                                               ; preds = %9
  %15 = load %struct.stu*, %struct.stu** %3, align 8
  store %struct.stu* %15, %struct.stu** %5, align 8
  %16 = load %struct.stu*, %struct.stu** %3, align 8
  %17 = getelementptr inbounds %struct.stu, %struct.stu* %16, i32 0, i32 4
  %18 = load %struct.stu*, %struct.stu** %17, align 8
  store %struct.stu* %18, %struct.stu** %3, align 8
  %19 = load %struct.stu*, %struct.stu** %3, align 8
  %20 = getelementptr inbounds %struct.stu, %struct.stu* %19, i32 0, i32 3
  %21 = load i32, i32* %20, align 4
  %22 = load i32, i32* %7, align 4
  %23 = icmp sgt i32 %21, %22
  br i1 %23, label %24, label %30

24:                                               ; preds = %14
  %25 = load %struct.stu*, %struct.stu** %3, align 8
  %26 = getelementptr inbounds %struct.stu, %struct.stu* %25, i32 0, i32 3
  %27 = load i32, i32* %26, align 4
  store i32 %27, i32* %7, align 4
  %28 = load %struct.stu*, %struct.stu** %5, align 8
  store %struct.stu* %28, %struct.stu** %4, align 8
  %29 = load %struct.stu*, %struct.stu** %3, align 8
  store %struct.stu* %29, %struct.stu** %6, align 8
  br label %30

30:                                               ; preds = %24, %14
  br label %9

31:                                               ; preds = %9
  %32 = load %struct.stu*, %struct.stu** %6, align 8
  %33 = getelementptr inbounds %struct.stu, %struct.stu* %32, i32 0, i32 0
  %34 = load i32, i32* %33, align 8
  %35 = load %struct.stu*, %struct.stu** %6, align 8
  %36 = getelementptr inbounds %struct.stu, %struct.stu* %35, i32 0, i32 3
  %37 = load i32, i32* %36, align 4
  %38 = call i32 (i8*, ...) @printf(i8* getelementptr inbounds ([7 x i8], [7 x i8]* @.str.2, i64 0, i64 0), i32 %34, i32 %37)
  %39 = load %struct.stu*, %struct.stu** %6, align 8
  %40 = getelementptr inbounds %struct.stu, %struct.stu* %39, i32 0, i32 4
  %41 = load %struct.stu*, %struct.stu** %40, align 8
  %42 = load %struct.stu*, %struct.stu** %4, align 8
  %43 = getelementptr inbounds %struct.stu, %struct.stu* %42, i32 0, i32 4
  store %struct.stu* %41, %struct.stu** %43, align 8
  %44 = load %struct.stu*, %struct.stu** %6, align 8
  %45 = bitcast %struct.stu* %44 to i8*
  call void @free(i8* %45) #3
  ret void
}

declare dso_local i32 @printf(i8*, ...) #1

; Function Attrs: nounwind
declare dso_local void @free(i8*) #2


!llvm.module.flags = !{!0}
!llvm.ident = !{!1}

!0 = !{i32 1, !"wchar_size", i32 4}
!1 = !{!"clang version 10.0.0-4ubuntu1 "}
